; Function Attrs: nounwind uwtable
define internal range(i32 0, 2) i32 @test_msg_check_transaction_id() #0 {
  %1 = alloca [16 x i8], align 16
  %2 = alloca ptr, align 8
  call void @llvm.lifetime.start.p0(i64 16, ptr nonnull %1) #7
  call void @llvm.memcpy.p0.p0.i64(ptr noundef nonnull align 16 dereferenceable(16) %1, ptr noundef nonnull align 16 dereferenceable(16) @__const.test_msg_check_transaction_id.trans_id, i64 16, i1 false)
  call void @llvm.lifetime.start.p0(i64 8, ptr nonnull %2) #7
  %3 = tail call fastcc ptr @set_up(ptr noundef nonnull @.str.69)
  store ptr %3, ptr %2, align 8, !tbaa !36
  %4 = icmp eq ptr %3, null
  br i1 %4, label %13, label %5

5:                                                ; preds = %0
  call fastcc void @setup_check_update(ptr noundef %2, i32 noundef 1, ptr noundef nonnull @allow_unprotected, i32 noundef 1, ptr noundef nonnull %1, ptr noundef null)
  %6 = load ptr, ptr %2, align 8, !tbaa !36
  %.not = icmp eq ptr %6, null
  br i1 %.not, label %13, label %7

7:                                                ; preds = %5
  %8 = call fastcc i32 @execute_msg_check_test(ptr noundef %6)
  %9 = getelementptr inbounds nuw i8, ptr %6, i64 24
  %10 = load ptr, ptr %9, align 8, !tbaa !27
  call void @OSSL_CMP_MSG_free(ptr noundef %10) #7
  %11 = getelementptr inbounds nuw i8, ptr %6, i64 16
  %12 = load ptr, ptr %11, align 8, !tbaa !28
  call void @OSSL_CMP_CTX_free(ptr noundef %12) #7
  call void @CRYPTO_free(ptr noundef nonnull %6, ptr noundef nonnull @.str.14, i32 noundef 47) #7
  br label %13

13:                                               ; preds = %5, %7, %0
  %.02 = phi i32 [ 0, %0 ], [ %8, %7 ], [ 0, %5 ]
  call void @llvm.lifetime.end.p0(i64 8, ptr nonnull %2) #7
  call void @llvm.lifetime.end.p0(i64 16, ptr nonnull %1) #7
  ret i32 %.02
}